target datalayout = "e-m:e-p270:32:32-p271:32:32-p272:64:64-i64:64-i128:128-f80:128-n8:16:32:64-S128"
target triple = "x86_64-unknown-linux-gnu"

%"struct.struct_pb::UnknownFields" = type { %"class.std::vector" }
%"class.std::vector" = type { %"struct.std::_Vector_base" }
%"struct.std::_Vector_base" = type { %"struct.std::_Vector_base<struct_pb::UnknownFields::Field, std::allocator<struct_pb::UnknownFields::Field>>::_Vector_impl" }
%"struct.std::_Vector_base<struct_pb::UnknownFields::Field, std::allocator<struct_pb::UnknownFields::Field>>::_Vector_impl" = type { %"struct.std::_Vector_base<struct_pb::UnknownFields::Field, std::allocator<struct_pb::UnknownFields::Field>>::_Vector_impl_data" }
%"struct.std::_Vector_base<struct_pb::UnknownFields::Field, std::allocator<struct_pb::UnknownFields::Field>>::_Vector_impl_data" = type { ptr, ptr, ptr }
%"class.std::optional" = type { %"struct.std::_Optional_base" }
%"struct.std::_Optional_base" = type { %"struct.std::_Optional_payload" }
%"struct.std::_Optional_payload" = type { %"struct.std::_Optional_payload_base.base", [3 x i8] }
%"struct.std::_Optional_payload_base.base" = type <{ %"union.std::_Optional_payload_base<int>::_Storage", i8 }>
%"union.std::_Optional_payload_base<int>::_Storage" = type { i32 }
%"class.__gnu_cxx::__normal_iterator.302" = type { ptr }
%"struct.struct_pb::UnknownFields::Field" = type { ptr, i64 }
%"struct.protobuf_test_messages::proto2::ProtoWithKeywords" = type { %"class.std::optional" }
%"struct.std::_Optional_payload_base" = type <{ %"union.std::_Optional_payload_base<int>::_Storage", i8, [3 x i8] }>

; Function Attrs: mustprogress nounwind uwtable
define linkonce_odr dso_local noundef nonnull align 8 dereferenceable(8) ptr @_ZNK9__gnu_cxx17__normal_iteratorIPKN9struct_pb13UnknownFields5FieldESt6vectorIS3_SaIS3_EEE4baseEv(ptr noundef nonnull align 8 dereferenceable(8) %this) #1 comdat align 2 {
entry:
  %this.addr = alloca ptr, align 8
  store ptr %this, ptr %this.addr, align 8
  %this1 = load ptr, ptr %this.addr, align 8
  %_M_current = getelementptr inbounds %"class.__gnu_cxx::__normal_iterator.302", ptr %this1, i32 0, i32 0
  ret ptr %_M_current
}

; Function Attrs: mustprogress nounwind uwtable
define linkonce_odr dso_local void @_ZN9__gnu_cxx17__normal_iteratorIPKN9struct_pb13UnknownFields5FieldESt6vectorIS3_SaIS3_EEEC2ERKS5_(ptr noundef nonnull align 8 dereferenceable(8) %this, ptr noundef nonnull align 8 dereferenceable(8) %__i) unnamed_addr #1 comdat align 2 {
entry:
  %this.addr = alloca ptr, align 8
  %__i.addr = alloca ptr, align 8
  store ptr %this, ptr %this.addr, align 8
  store ptr %__i, ptr %__i.addr, align 8
  %this1 = load ptr, ptr %this.addr, align 8
  %_M_current = getelementptr inbounds %"class.__gnu_cxx::__normal_iterator.302", ptr %this1, i32 0, i32 0
  %0 = load ptr, ptr %__i.addr, align 8
  %1 = load ptr, ptr %0, align 8
  store ptr %1, ptr %_M_current, align 8
  ret void
}

; Function Attrs: mustprogress nounwind uwtable
define linkonce_odr dso_local noundef nonnull align 4 dereferenceable(4) ptr @_ZNKSt22_Optional_payload_baseIiE6_M_getEv(ptr noundef nonnull align 4 dereferenceable(5) %this) #1 comdat align 2 {
entry:
  %this.addr = alloca ptr, align 8
  store ptr %this, ptr %this.addr, align 8
  %this1 = load ptr, ptr %this.addr, align 8
  %_M_payload = getelementptr inbounds %"struct.std::_Optional_payload_base", ptr %this1, i32 0, i32 0
  ret ptr %_M_payload
}

; Function Attrs: mustprogress nounwind uwtable
define linkonce_odr dso_local noundef nonnull align 8 dereferenceable(8) ptr @_ZN9__gnu_cxx17__normal_iteratorIPKN9struct_pb13UnknownFields5FieldESt6vectorIS3_SaIS3_EEEppEv(ptr noundef nonnull align 8 dereferenceable(8) %this) #1 comdat align 2 {
entry:
  %this.addr = alloca ptr, align 8
  store ptr %this, ptr %this.addr, align 8
  %this1 = load ptr, ptr %this.addr, align 8
  %_M_current = getelementptr inbounds %"class.__gnu_cxx::__normal_iterator.302", ptr %this1, i32 0, i32 0
  %0 = load ptr, ptr %_M_current, align 8
  %incdec.ptr = getelementptr inbounds %"struct.struct_pb::UnknownFields::Field", ptr %0, i32 1
  store ptr %incdec.ptr, ptr %_M_current, align 8
  ret ptr %this1
}

; Function Attrs: mustprogress nounwind uwtable
define linkonce_odr dso_local noundef nonnull align 8 dereferenceable(16) ptr @_ZNK9__gnu_cxx17__normal_iteratorIPKN9struct_pb13UnknownFields5FieldESt6vectorIS3_SaIS3_EEEdeEv(ptr noundef nonnull align 8 dereferenceable(8) %this) #1 comdat align 2 {
entry:
  %this.addr = alloca ptr, align 8
  store ptr %this, ptr %this.addr, align 8
  %this1 = load ptr, ptr %this.addr, align 8
  %_M_current = getelementptr inbounds %"class.__gnu_cxx::__normal_iterator.302", ptr %this1, i32 0, i32 0
  %0 = load ptr, ptr %_M_current, align 8
  ret ptr %0
}

; Function Attrs: mustprogress nounwind uwtable
define linkonce_odr dso_local noundef zeroext i1 @_ZN9__gnu_cxxeqIPKN9struct_pb13UnknownFields5FieldESt6vectorIS3_SaIS3_EEEEbRKNS_17__normal_iteratorIT_T0_EESE_QrqXeqcldtfp_4baseEcldtfp0_4baseERSt14convertible_toIbEE(ptr noundef nonnull align 8 dereferenceable(8) %__lhs, ptr noundef nonnull align 8 dereferenceable(8) %__rhs) #1 comdat {
entry:
  %__lhs.addr = alloca ptr, align 8
  %__rhs.addr = alloca ptr, align 8
  store ptr %__lhs, ptr %__lhs.addr, align 8
  store ptr %__rhs, ptr %__rhs.addr, align 8
  %0 = load ptr, ptr %__lhs.addr, align 8
  %call = call noundef nonnull align 8 dereferenceable(8) ptr @_ZNK9__gnu_cxx17__normal_iteratorIPKN9struct_pb13UnknownFields5FieldESt6vectorIS3_SaIS3_EEE4baseEv(ptr noundef nonnull align 8 dereferenceable(8) %0) #11
  %1 = load ptr, ptr %call, align 8
  %2 = load ptr, ptr %__rhs.addr, align 8
  %call1 = call noundef nonnull align 8 dereferenceable(8) ptr @_ZNK9__gnu_cxx17__normal_iteratorIPKN9struct_pb13UnknownFields5FieldESt6vectorIS3_SaIS3_EEE4baseEv(ptr noundef nonnull align 8 dereferenceable(8) %2) #11
  %3 = load ptr, ptr %call1, align 8
  %cmp = icmp eq ptr %1, %3
  ret i1 %cmp
}

; Function Attrs: mustprogress nounwind uwtable
define linkonce_odr dso_local ptr @_ZNKSt6vectorIN9struct_pb13UnknownFields5FieldESaIS2_EE3endEv(ptr noundef nonnull align 8 dereferenceable(24) %this) #1 comdat align 2 {
entry:
  %retval = alloca %"class.__gnu_cxx::__normal_iterator.302", align 8
  %this.addr = alloca ptr, align 8
  store ptr %this, ptr %this.addr, align 8
  %this1 = load ptr, ptr %this.addr, align 8
  %_M_impl = getelementptr inbounds %"struct.std::_Vector_base", ptr %this1, i32 0, i32 0
  %_M_finish = getelementptr inbounds %"struct.std::_Vector_base<struct_pb::UnknownFields::Field, std::allocator<struct_pb::UnknownFields::Field>>::_Vector_impl_data", ptr %_M_impl, i32 0, i32 1
  call void @_ZN9__gnu_cxx17__normal_iteratorIPKN9struct_pb13UnknownFields5FieldESt6vectorIS3_SaIS3_EEEC2ERKS5_(ptr noundef nonnull align 8 dereferenceable(8) %retval, ptr noundef nonnull align 8 dereferenceable(8) %_M_finish) #11
  %coerce.dive = getelementptr inbounds %"class.__gnu_cxx::__normal_iterator.302", ptr %retval, i32 0, i32 0
  %0 = load ptr, ptr %coerce.dive, align 8
  ret ptr %0
}

; Function Attrs: mustprogress nounwind uwtable
define linkonce_odr dso_local ptr @_ZNKSt6vectorIN9struct_pb13UnknownFields5FieldESaIS2_EE5beginEv(ptr noundef nonnull align 8 dereferenceable(24) %this) #1 comdat align 2 {
entry:
  %retval = alloca %"class.__gnu_cxx::__normal_iterator.302", align 8
  %this.addr = alloca ptr, align 8
  store ptr %this, ptr %this.addr, align 8
  %this1 = load ptr, ptr %this.addr, align 8
  %_M_impl = getelementptr inbounds %"struct.std::_Vector_base", ptr %this1, i32 0, i32 0
  %_M_start = getelementptr inbounds %"struct.std::_Vector_base<struct_pb::UnknownFields::Field, std::allocator<struct_pb::UnknownFields::Field>>::_Vector_impl_data", ptr %_M_impl, i32 0, i32 0
  call void @_ZN9__gnu_cxx17__normal_iteratorIPKN9struct_pb13UnknownFields5FieldESt6vectorIS3_SaIS3_EEEC2ERKS5_(ptr noundef nonnull align 8 dereferenceable(8) %retval, ptr noundef nonnull align 8 dereferenceable(8) %_M_start) #11
  %coerce.dive = getelementptr inbounds %"class.__gnu_cxx::__normal_iterator.302", ptr %retval, i32 0, i32 0
  %0 = load ptr, ptr %coerce.dive, align 8
  ret ptr %0
}

; Function Attrs: mustprogress nounwind uwtable
define linkonce_odr dso_local noundef nonnull align 4 dereferenceable(4) ptr @_ZNKSt19_Optional_base_implIiSt14_Optional_baseIiLb1ELb1EEE6_M_getEv(ptr noundef nonnull align 1 dereferenceable(1) %this) #1 comdat align 2 {
entry:
  %this.addr = alloca ptr, align 8
  store ptr %this, ptr %this.addr, align 8
  %this1 = load ptr, ptr %this.addr, align 8
  br label %do.body

do.body:                                          ; preds = %entry
  br label %do.cond

do.cond:                                          ; preds = %do.body
  br label %do.end

do.end:                                           ; preds = %do.cond
  %_M_payload = getelementptr inbounds %"struct.std::_Optional_base", ptr %this1, i32 0, i32 0
  %call = call noundef nonnull align 4 dereferenceable(4) ptr @_ZNKSt22_Optional_payload_baseIiE6_M_getEv(ptr noundef nonnull align 4 dereferenceable(5) %_M_payload) #11
  ret ptr %call
}

; Function Attrs: mustprogress nounwind uwtable
define linkonce_odr dso_local noundef zeroext i1 @_ZNKSt19_Optional_base_implIiSt14_Optional_baseIiLb1ELb1EEE13_M_is_engagedEv(ptr noundef nonnull align 1 dereferenceable(1) %this) #1 comdat align 2 {
entry:
  %this.addr = alloca ptr, align 8
  store ptr %this, ptr %this.addr, align 8
  %this1 = load ptr, ptr %this.addr, align 8
  %_M_payload = getelementptr inbounds %"struct.std::_Optional_base", ptr %this1, i32 0, i32 0
  %_M_engaged = getelementptr inbounds %"struct.std::_Optional_payload_base", ptr %_M_payload, i32 0, i32 1
  %0 = load i8, ptr %_M_engaged, align 4
  %tobool = trunc i8 %0 to i1
  ret i1 %tobool
}

; Function Attrs: mustprogress nounwind uwtable
define linkonce_odr dso_local void @_ZNK9struct_pb13UnknownFields12serialize_toEPcRmm(ptr noundef nonnull align 8 dereferenceable(24) %this, ptr noundef %data, ptr noundef nonnull align 8 dereferenceable(8) %pos, i64 noundef %size) #1 comdat align 2 {
entry:
  %this.addr = alloca ptr, align 8
  %data.addr = alloca ptr, align 8
  %pos.addr = alloca ptr, align 8
  %size.addr = alloca i64, align 8
  %__range2 = alloca ptr, align 8
  %__begin2 = alloca %"class.__gnu_cxx::__normal_iterator.302", align 8
  %__end2 = alloca %"class.__gnu_cxx::__normal_iterator.302", align 8
  %f = alloca ptr, align 8
  store ptr %this, ptr %this.addr, align 8
  store ptr %data, ptr %data.addr, align 8
  store ptr %pos, ptr %pos.addr, align 8
  store i64 %size, ptr %size.addr, align 8
  %this1 = load ptr, ptr %this.addr, align 8
  %fields = getelementptr inbounds %"struct.struct_pb::UnknownFields", ptr %this1, i32 0, i32 0
  store ptr %fields, ptr %__range2, align 8
  %0 = load ptr, ptr %__range2, align 8
  %call = call ptr @_ZNKSt6vectorIN9struct_pb13UnknownFields5FieldESaIS2_EE5beginEv(ptr noundef nonnull align 8 dereferenceable(24) %0) #11
  %coerce.dive = getelementptr inbounds %"class.__gnu_cxx::__normal_iterator.302", ptr %__begin2, i32 0, i32 0
  store ptr %call, ptr %coerce.dive, align 8
  %1 = load ptr, ptr %__range2, align 8
  %call2 = call ptr @_ZNKSt6vectorIN9struct_pb13UnknownFields5FieldESaIS2_EE3endEv(ptr noundef nonnull align 8 dereferenceable(24) %1) #11
  %coerce.dive3 = getelementptr inbounds %"class.__gnu_cxx::__normal_iterator.302", ptr %__end2, i32 0, i32 0
  store ptr %call2, ptr %coerce.dive3, align 8
  br label %for.cond

for.cond:                                         ; preds = %for.inc, %entry
  %call4 = call noundef zeroext i1 @_ZN9__gnu_cxxeqIPKN9struct_pb13UnknownFields5FieldESt6vectorIS3_SaIS3_EEEEbRKNS_17__normal_iteratorIT_T0_EESE_QrqXeqcldtfp_4baseEcldtfp0_4baseERSt14convertible_toIbEE(ptr noundef nonnull align 8 dereferenceable(8) %__begin2, ptr noundef nonnull align 8 dereferenceable(8) %__end2) #11
  %lnot = xor i1 %call4, true
  br i1 %lnot, label %for.body, label %for.end

for.body:                                         ; preds = %for.cond
  %call5 = call noundef nonnull align 8 dereferenceable(16) ptr @_ZNK9__gnu_cxx17__normal_iteratorIPKN9struct_pb13UnknownFields5FieldESt6vectorIS3_SaIS3_EEEdeEv(ptr noundef nonnull align 8 dereferenceable(8) %__begin2) #11
  store ptr %call5, ptr %f, align 8
  %2 = load ptr, ptr %data.addr, align 8
  %3 = load ptr, ptr %pos.addr, align 8
  %4 = load i64, ptr %3, align 8
  %add.ptr = getelementptr inbounds i8, ptr %2, i64 %4
  %5 = load ptr, ptr %f, align 8
  %data6 = getelementptr inbounds %"struct.struct_pb::UnknownFields::Field", ptr %5, i32 0, i32 0
  %6 = load ptr, ptr %data6, align 8
  %7 = load ptr, ptr %f, align 8
  %len = getelementptr inbounds %"struct.struct_pb::UnknownFields::Field", ptr %7, i32 0, i32 1
  %8 = load i64, ptr %len, align 8
  call void @llvm.memcpy.p0.p0.i64(ptr align 1 %add.ptr, ptr align 1 %6, i64 %8, i1 false)
  %9 = load ptr, ptr %f, align 8
  %len7 = getelementptr inbounds %"struct.struct_pb::UnknownFields::Field", ptr %9, i32 0, i32 1
  %10 = load i64, ptr %len7, align 8
  %11 = load ptr, ptr %pos.addr, align 8
  %12 = load i64, ptr %11, align 8
  %add = add i64 %12, %10
  store i64 %add, ptr %11, align 8
  br label %for.inc

for.inc:                                          ; preds = %for.body
  %call8 = call noundef nonnull align 8 dereferenceable(8) ptr @_ZN9__gnu_cxx17__normal_iteratorIPKN9struct_pb13UnknownFields5FieldESt6vectorIS3_SaIS3_EEEppEv(ptr noundef nonnull align 8 dereferenceable(8) %__begin2) #11
  br label %for.cond

for.end:                                          ; preds = %for.cond
  ret void
}

; Function Attrs: mustprogress uwtable
define linkonce_odr dso_local noundef nonnull align 4 dereferenceable(4) ptr @_ZNKRSt8optionalIiE5valueEv(ptr noundef nonnull align 4 dereferenceable(8) %this) #0 comdat align 2 {
entry:
  %this.addr = alloca ptr, align 8
  store ptr %this, ptr %this.addr, align 8
  %this1 = load ptr, ptr %this.addr, align 8
  %call = call noundef zeroext i1 @_ZNKSt19_Optional_base_implIiSt14_Optional_baseIiLb1ELb1EEE13_M_is_engagedEv(ptr noundef nonnull align 1 dereferenceable(1) %this1) #11
  br i1 %call, label %if.then, label %if.end

if.then:                                          ; preds = %entry
  %call2 = call noundef nonnull align 4 dereferenceable(4) ptr @_ZNKSt19_Optional_base_implIiSt14_Optional_baseIiLb1ELb1EEE6_M_getEv(ptr noundef nonnull align 1 dereferenceable(1) %this1) #11
  ret ptr %call2

if.end:                                           ; preds = %entry
  call void @_ZSt27__throw_bad_optional_accessv() #12
  unreachable
}

; Function Attrs: mustprogress nounwind uwtable
define linkonce_odr dso_local noundef zeroext i1 @_ZNKSt8optionalIiE9has_valueEv(ptr noundef nonnull align 4 dereferenceable(8) %this) #1 comdat align 2 {
entry:
  %this.addr = alloca ptr, align 8
  store ptr %this, ptr %this.addr, align 8
  %this1 = load ptr, ptr %this.addr, align 8
  %call = call noundef zeroext i1 @_ZNKSt19_Optional_base_implIiSt14_Optional_baseIiLb1ELb1EEE13_M_is_engagedEv(ptr noundef nonnull align 1 dereferenceable(1) %this1) #11
  ret i1 %call
}

; Function Attrs: mustprogress uwtable
define dso_local void @_ZN9struct_pb8internal12serialize_toIN22protobuf_test_messages6proto217ProtoWithKeywordsEEEvPcmRKT_RKNS_13UnknownFieldsE(ptr noundef %data, i64 noundef %size, ptr noundef nonnull align 4 dereferenceable(8) %t, ptr noundef nonnull align 8 dereferenceable(24) %unknown_fields) #0 {
entry:
  %data.addr.i3 = alloca ptr, align 8
  %pos.addr.i4 = alloca ptr, align 8
  %size.addr.i5 = alloca i64, align 8
  %v.addr.i6 = alloca i64, align 8
  %data.addr.i = alloca ptr, align 8
  %pos.addr.i = alloca ptr, align 8
  %size.addr.i = alloca i64, align 8
  %v.addr.i = alloca i64, align 8
  %data.addr = alloca ptr, align 8
  %size.addr = alloca i64, align 8
  %t.addr = alloca ptr, align 8
  %unknown_fields.addr = alloca ptr, align 8
  %pos = alloca i64, align 8
  store ptr %data, ptr %data.addr, align 8
  store i64 %size, ptr %size.addr, align 8
  store ptr %t, ptr %t.addr, align 8
  store ptr %unknown_fields, ptr %unknown_fields.addr, align 8
  store i64 0, ptr %pos, align 8
  %0 = load ptr, ptr %t.addr, align 8
  %inline_ = getelementptr inbounds %"struct.protobuf_test_messages::proto2::ProtoWithKeywords", ptr %0, i32 0, i32 0
  %call = call noundef zeroext i1 @_ZNKSt8optionalIiE9has_valueEv(ptr noundef nonnull align 4 dereferenceable(8) %inline_) #11
  br i1 %call, label %if.then, label %if.end

if.then:                                          ; preds = %entry
  %1 = load ptr, ptr %data.addr, align 8
  %2 = load i64, ptr %size.addr, align 8
  store ptr %1, ptr %data.addr.i3, align 8
  store ptr %pos, ptr %pos.addr.i4, align 8
  store i64 %2, ptr %size.addr.i5, align 8
  store i64 8, ptr %v.addr.i6, align 8
  br label %while.cond.i7

while.cond.i7:                                    ; preds = %while.body.i12, %if.then
  %3 = load i64, ptr %v.addr.i6, align 8
  %cmp.i8 = icmp uge i64 %3, 128
  br i1 %cmp.i8, label %while.body.i12, label %_ZN9struct_pb8internal16serialize_varintEPcRmmm.exit18

while.body.i12:                                   ; preds = %while.cond.i7
  %4 = load i64, ptr %v.addr.i6, align 8
  %or.i13 = or i64 %4, 128
  %conv.i14 = trunc i64 %or.i13 to i8
  %5 = load ptr, ptr %data.addr.i3, align 8
  %6 = load ptr, ptr %pos.addr.i4, align 8
  %7 = load i64, ptr %6, align 8
  %inc.i15 = add i64 %7, 1
  store i64 %inc.i15, ptr %6, align 8
  %arrayidx.i16 = getelementptr inbounds i8, ptr %5, i64 %7
  store i8 %conv.i14, ptr %arrayidx.i16, align 1
  %8 = load i64, ptr %v.addr.i6, align 8
  %shr.i17 = lshr i64 %8, 7
  store i64 %shr.i17, ptr %v.addr.i6, align 8
  br label %while.cond.i7, !llvm.loop !7

_ZN9struct_pb8internal16serialize_varintEPcRmmm.exit18: ; preds = %while.cond.i7
  %9 = load i64, ptr %v.addr.i6, align 8
  %conv1.i9 = trunc i64 %9 to i8
  %10 = load ptr, ptr %data.addr.i3, align 8
  %11 = load ptr, ptr %pos.addr.i4, align 8
  %12 = load i64, ptr %11, align 8
  %inc2.i10 = add i64 %12, 1
  store i64 %inc2.i10, ptr %11, align 8
  %arrayidx3.i11 = getelementptr inbounds i8, ptr %10, i64 %12
  store i8 %conv1.i9, ptr %arrayidx3.i11, align 1
  %13 = load ptr, ptr %data.addr, align 8
  %14 = load i64, ptr %size.addr, align 8
  %15 = load ptr, ptr %t.addr, align 8
  %inline_1 = getelementptr inbounds %"struct.protobuf_test_messages::proto2::ProtoWithKeywords", ptr %15, i32 0, i32 0
  %call2 = call noundef nonnull align 4 dereferenceable(4) ptr @_ZNKRSt8optionalIiE5valueEv(ptr noundef nonnull align 4 dereferenceable(8) %inline_1)
  %16 = load i32, ptr %call2, align 4
  %conv = sext i32 %16 to i64
  store ptr %13, ptr %data.addr.i, align 8
  store ptr %pos, ptr %pos.addr.i, align 8
  store i64 %14, ptr %size.addr.i, align 8
  store i64 %conv, ptr %v.addr.i, align 8
  br label %while.cond.i

while.cond.i:                                     ; preds = %while.body.i, %_ZN9struct_pb8internal16serialize_varintEPcRmmm.exit18
  %17 = load i64, ptr %v.addr.i, align 8
  %cmp.i = icmp uge i64 %17, 128
  br i1 %cmp.i, label %while.body.i, label %_ZN9struct_pb8internal16serialize_varintEPcRmmm.exit

while.body.i:                                     ; preds = %while.cond.i
  %18 = load i64, ptr %v.addr.i, align 8
  %or.i = or i64 %18, 128
  %conv.i = trunc i64 %or.i to i8
  %19 = load ptr, ptr %data.addr.i, align 8
  %20 = load ptr, ptr %pos.addr.i, align 8
  %21 = load i64, ptr %20, align 8
  %inc.i = add i64 %21, 1
  store i64 %inc.i, ptr %20, align 8
  %arrayidx.i = getelementptr inbounds i8, ptr %19, i64 %21
  store i8 %conv.i, ptr %arrayidx.i, align 1
  %22 = load i64, ptr %v.addr.i, align 8
  %shr.i = lshr i64 %22, 7
  store i64 %shr.i, ptr %v.addr.i, align 8
  br label %while.cond.i, !llvm.loop !7

_ZN9struct_pb8internal16serialize_varintEPcRmmm.exit: ; preds = %while.cond.i
  %23 = load i64, ptr %v.addr.i, align 8
  %conv1.i = trunc i64 %23 to i8
  %24 = load ptr, ptr %data.addr.i, align 8
  %25 = load ptr, ptr %pos.addr.i, align 8
  %26 = load i64, ptr %25, align 8
  %inc2.i = add i64 %26, 1
  store i64 %inc2.i, ptr %25, align 8
  %arrayidx3.i = getelementptr inbounds i8, ptr %24, i64 %26
  store i8 %conv1.i, ptr %arrayidx3.i, align 1
  br label %if.end

if.end:                                           ; preds = %_ZN9struct_pb8internal16serialize_varintEPcRmmm.exit, %entry
  %27 = load ptr, ptr %unknown_fields.addr, align 8
  %28 = load ptr, ptr %data.addr, align 8
  %29 = load i64, ptr %size.addr, align 8
  call void @_ZNK9struct_pb13UnknownFields12serialize_toEPcRmm(ptr noundef nonnull align 8 dereferenceable(24) %27, ptr noundef %28, ptr noundef nonnull align 8 dereferenceable(8) %pos, i64 noundef %29)
  ret void
}