; Function Attrs: mustprogress uwtable
define dso_local void @_ZN9struct_pb8internal12serialize_toIN22protobuf_test_messages6proto217ProtoWithKeywordsEEEvPcmRKT_RKNS_13UnknownFieldsE(ptr nocapture noundef writeonly %data, i64 noundef %size, ptr nocapture noundef nonnull readonly align 4 dereferenceable(8) %t, ptr nocapture noundef nonnull readonly align 8 dereferenceable(24) %unknown_fields) local_unnamed_addr #2 {
entry:
  %_M_engaged.i.i = getelementptr inbounds i8, ptr %t, i64 4
  %0 = load i8, ptr %_M_engaged.i.i, align 4
  %1 = and i8 %0, 1
  %tobool.i.i.not = icmp eq i8 %1, 0
  br i1 %tobool.i.i.not, label %if.end, label %_ZN9struct_pb8internal16serialize_varintEPcRmmm.exit18

_ZN9struct_pb8internal16serialize_varintEPcRmmm.exit18: ; preds = %entry
  store i8 8, ptr %data, align 1
  %2 = load i8, ptr %_M_engaged.i.i, align 4
  %3 = and i8 %2, 1
  %tobool.i.not.i = icmp eq i8 %3, 0
  br i1 %tobool.i.not.i, label %if.end.i, label %_ZNKRSt8optionalIiE5valueEv.exit

if.end.i:                                         ; preds = %_ZN9struct_pb8internal16serialize_varintEPcRmmm.exit18
  tail call void @_ZSt27__throw_bad_optional_accessv() #20
  unreachable

_ZNKRSt8optionalIiE5valueEv.exit:                 ; preds = %_ZN9struct_pb8internal16serialize_varintEPcRmmm.exit18
  %4 = load i32, ptr %t, align 4
  %conv = sext i32 %4 to i64
  %cmp.i21 = icmp ugt i32 %4, 127
  br i1 %cmp.i21, label %while.body.i, label %_ZN9struct_pb8internal16serialize_varintEPcRmmm.exit

while.body.i:                                     ; preds = %_ZNKRSt8optionalIiE5valueEv.exit, %while.body.i
  %v.addr.i.023 = phi i64 [ %shr.i, %while.body.i ], [ %conv, %_ZNKRSt8optionalIiE5valueEv.exit ]
  %pos.022 = phi i64 [ %inc.i, %while.body.i ], [ 1, %_ZNKRSt8optionalIiE5valueEv.exit ]
  %5 = trunc i64 %v.addr.i.023 to i8
  %conv.i = or i8 %5, -128
  %inc.i = add nuw nsw i64 %pos.022, 1
  %arrayidx.i = getelementptr inbounds i8, ptr %data, i64 %pos.022
  store i8 %conv.i, ptr %arrayidx.i, align 1
  %shr.i = lshr i64 %v.addr.i.023, 7
  %cmp.i = icmp ugt i64 %v.addr.i.023, 16383
  br i1 %cmp.i, label %while.body.i, label %_ZN9struct_pb8internal16serialize_varintEPcRmmm.exit, !llvm.loop !7

_ZN9struct_pb8internal16serialize_varintEPcRmmm.exit: ; preds = %while.body.i, %_ZNKRSt8optionalIiE5valueEv.exit
  %pos.0.lcssa = phi i64 [ 1, %_ZNKRSt8optionalIiE5valueEv.exit ], [ %inc.i, %while.body.i ]
  %v.addr.i.0.lcssa = phi i64 [ %conv, %_ZNKRSt8optionalIiE5valueEv.exit ], [ %shr.i, %while.body.i ]
  %conv1.i = trunc i64 %v.addr.i.0.lcssa to i8
  %inc2.i = add i64 %pos.0.lcssa, 1
  %arrayidx3.i = getelementptr inbounds i8, ptr %data, i64 %pos.0.lcssa
  store i8 %conv1.i, ptr %arrayidx3.i, align 1
  br label %if.end

if.end:                                           ; preds = %_ZN9struct_pb8internal16serialize_varintEPcRmmm.exit, %entry
  %pos.1 = phi i64 [ %inc2.i, %_ZN9struct_pb8internal16serialize_varintEPcRmmm.exit ], [ 0, %entry ]
  %6 = load ptr, ptr %unknown_fields, align 8
  %_M_finish.i.i = getelementptr inbounds i8, ptr %unknown_fields, i64 8
  %7 = load ptr, ptr %_M_finish.i.i, align 8
  %cmp.i7.i = icmp eq ptr %6, %7
  br i1 %cmp.i7.i, label %_ZNK9struct_pb13UnknownFields12serialize_toEPcRmm.exit, label %for.body.i

for.body.i:                                       ; preds = %if.end, %for.body.i
  %pos.2 = phi i64 [ %add.i, %for.body.i ], [ %pos.1, %if.end ]
  %__begin2.sroa.0.08.i = phi ptr [ %incdec.ptr.i.i, %for.body.i ], [ %6, %if.end ]
  %add.ptr.i = getelementptr inbounds i8, ptr %data, i64 %pos.2
  %8 = load ptr, ptr %__begin2.sroa.0.08.i, align 8
  %len.i = getelementptr inbounds i8, ptr %__begin2.sroa.0.08.i, i64 8
  %9 = load i64, ptr %len.i, align 8
  tail call void @llvm.memcpy.p0.p0.i64(ptr align 1 %add.ptr.i, ptr align 1 %8, i64 %9, i1 false)
  %10 = load i64, ptr %len.i, align 8
  %add.i = add i64 %10, %pos.2
  %incdec.ptr.i.i = getelementptr inbounds i8, ptr %__begin2.sroa.0.08.i, i64 16
  %cmp.i.i = icmp eq ptr %incdec.ptr.i.i, %7
  br i1 %cmp.i.i, label %_ZNK9struct_pb13UnknownFields12serialize_toEPcRmm.exit, label %for.body.i

_ZNK9struct_pb13UnknownFields12serialize_toEPcRmm.exit: ; preds = %for.body.i, %if.end
  ret void
}